target datalayout = "e-m:e-p270:32:32-p271:32:32-p272:64:64-i64:64-i128:128-f80:128-n8:16:32:64-S128"
target triple = "x86_64-pc-linux-gnu"

%class.TransTableL = type { %class.TransTable, i32, i32, i32, i32, i32, i32, %"struct.TransTableL::pageStatsType", [8192 x %"struct.TransTableL::aggrType"], [12 x [4 x ptr]], [12 x [4 x ptr]], ptr, ptr, %"struct.TransTableL::harvestedType", i32, i32 }
%class.TransTable = type { ptr }
%"struct.TransTableL::pageStatsType" = type { i32, i32, i32, i32, i32 }
%"struct.TransTableL::aggrType" = type { [4 x i32], [4 x [4 x i32]] }
%"struct.TransTableL::harvestedType" = type { i32, [1000 x ptr] }
%"struct.TransTableL::poolType" = type { ptr, ptr, i32, ptr }

; Function Attrs: mustprogress nounwind uwtable
define noundef i32 @_ZNK11TransTableL11BlocksInUseEv(ptr noundef nonnull align 8 dereferenceable(664216) %0) #5 align 2 {
  %2 = alloca ptr, align 8
  %3 = alloca ptr, align 8
  %4 = alloca i32, align 4
  store ptr %0, ptr %2, align 8
  %5 = load ptr, ptr %2, align 8
  %6 = getelementptr inbounds nuw %class.TransTableL, ptr %5, i32 0, i32 11
  %7 = load ptr, ptr %6, align 8
  store ptr %7, ptr %3, align 8
  store i32 0, ptr %4, align 4
  br label %8

8:                                                ; preds = %17, %1
  %9 = load ptr, ptr %3, align 8
  %10 = getelementptr inbounds nuw %"struct.TransTableL::poolType", ptr %9, i32 0, i32 2
  %11 = load i32, ptr %10, align 8
  %12 = load i32, ptr %4, align 4
  %13 = add nsw i32 %12, %11
  store i32 %13, ptr %4, align 4
  %14 = load ptr, ptr %3, align 8
  %15 = getelementptr inbounds nuw %"struct.TransTableL::poolType", ptr %14, i32 0, i32 1
  %16 = load ptr, ptr %15, align 8
  store ptr %16, ptr %3, align 8
  br label %17

17:                                               ; preds = %8
  %18 = load ptr, ptr %3, align 8
  %19 = icmp ne ptr %18, null
  br i1 %19, label %8, label %20, !llvm.loop !20

20:                                               ; preds = %17
  %21 = load i32, ptr %4, align 4
  ret i32 %21
}