; Function Attrs: mustprogress nofree norecurse nosync nounwind willreturn memory(read, inaccessiblemem: none) uwtable
define noundef i32 @_ZNK11TransTableL11BlocksInUseEv(ptr nocapture noundef nonnull readonly align 8 dereferenceable(664216) %0) local_unnamed_addr #17 align 2 {
  %2 = getelementptr inbounds nuw i8, ptr %0, i64 656184
  %3 = load ptr, ptr %2, align 8
  br label %4

4:                                                ; preds = %4, %1
  %.05 = phi ptr [ %3, %1 ], [ %9, %4 ]
  %.0 = phi i32 [ 0, %1 ], [ %7, %4 ]
  %5 = getelementptr inbounds nuw i8, ptr %.05, i64 16
  %6 = load i32, ptr %5, align 8
  %7 = add nsw i32 %6, %.0
  %8 = getelementptr inbounds nuw i8, ptr %.05, i64 8
  %9 = load ptr, ptr %8, align 8
  %.not = icmp eq ptr %9, null
  br i1 %.not, label %10, label %4, !llvm.loop !20

10:                                               ; preds = %4
  ret i32 %7
}